; Function Attrs: nounwind sspstrong uwtable
define internal void @bg_migration_vm_start_bh(ptr noundef captures(none) %opaque) #0 {
entry:
  %vm_start_bh = getelementptr inbounds nuw i8, ptr %opaque, i64 168
  %0 = load ptr, ptr %vm_start_bh, align 8
  tail call void @qemu_bh_delete(ptr noundef %0) #19
  store ptr null, ptr %vm_start_bh, align 8
  tail call void @vm_start() #19
  tail call fastcc void @migration_downtime_end(ptr noundef %opaque)
  ret void
}